target datalayout = "e-m:e-p270:32:32-p271:32:32-p272:64:64-i64:64-i128:128-f80:128-n8:16:32:64-S128"
target triple = "x86_64-pc-linux-gnu"

%class.AStringListListModel = type { %class.QAbstractTableModel, %class.QList, %class.QList.0 }
%class.QAbstractTableModel = type { %class.QAbstractItemModel }
%class.QAbstractItemModel = type { %class.QObject }
%class.QObject = type { ptr, %class.QScopedPointer }
%class.QScopedPointer = type { ptr }
%class.QList = type { %struct.QArrayDataPointer }
%struct.QArrayDataPointer = type { ptr, ptr, i64 }
%class.QList.0 = type { %struct.QArrayDataPointer.3 }
%struct.QArrayDataPointer.3 = type { ptr, ptr, i64 }
%class.QModelIndex = type { i32, i32, i64, ptr }
%class.QString = type { %struct.QArrayDataPointer.4 }
%struct.QArrayDataPointer.4 = type { ptr, ptr, i64 }

; Function Attrs: mustprogress nounwind null_pointer_is_valid sspstrong uwtable
define linkonce_odr noundef ptr @_ZN17QArrayDataPointerI7QStringE4dataEv(ptr noundef align 8 dereferenceable_or_null(24) %0) #2 comdat align 2 {
  %2 = alloca ptr, align 8
  store ptr %0, ptr %2, align 8
  %3 = load ptr, ptr %2, align 8
  %4 = getelementptr inbounds nuw %struct.QArrayDataPointer.3, ptr %3, i32 0, i32 1
  %5 = load ptr, ptr %4, align 8
  ret ptr %5
}

; Function Attrs: mustprogress nounwind null_pointer_is_valid sspstrong uwtable
define linkonce_odr noundef ptr @_ZN17QArrayDataPointerI5QListI7QStringEE4dataEv(ptr noundef align 8 dereferenceable_or_null(24) %0) #2 comdat align 2 {
  %2 = alloca ptr, align 8
  store ptr %0, ptr %2, align 8
  %3 = load ptr, ptr %2, align 8
  %4 = getelementptr inbounds nuw %struct.QArrayDataPointer, ptr %3, i32 0, i32 1
  %5 = load ptr, ptr %4, align 8
  ret ptr %5
}

; Function Attrs: mustprogress nounwind null_pointer_is_valid sspstrong uwtable
define linkonce_odr noundef ptr @_ZN17QArrayDataPointerI7QStringE3endEv(ptr noundef align 8 dereferenceable_or_null(24) %0) #2 comdat align 2 {
  %2 = alloca ptr, align 8
  store ptr %0, ptr %2, align 8
  %3 = load ptr, ptr %2, align 8
  %4 = call noundef ptr @_ZN17QArrayDataPointerI7QStringE4dataEv(ptr noundef align 8 dereferenceable_or_null(24) %3) #23
  %5 = getelementptr inbounds nuw %struct.QArrayDataPointer.3, ptr %3, i32 0, i32 2
  %6 = load i64, ptr %5, align 8
  %7 = getelementptr %class.QString, ptr %4, i64 %6
  ret ptr %7
}

; Function Attrs: mustprogress nounwind null_pointer_is_valid sspstrong uwtable
define linkonce_odr noundef ptr @_ZN17QArrayDataPointerI7QStringEptEv(ptr noundef align 8 dereferenceable_or_null(24) %0) #2 comdat align 2 {
  %2 = alloca ptr, align 8
  store ptr %0, ptr %2, align 8
  %3 = load ptr, ptr %2, align 8
  ret ptr %3
}

; Function Attrs: mustprogress nounwind null_pointer_is_valid sspstrong uwtable
define linkonce_odr noundef ptr @_ZN17QArrayDataPointerI5QListI7QStringEE3endEv(ptr noundef align 8 dereferenceable_or_null(24) %0) #2 comdat align 2 {
  %2 = alloca ptr, align 8
  store ptr %0, ptr %2, align 8
  %3 = load ptr, ptr %2, align 8
  %4 = call noundef ptr @_ZN17QArrayDataPointerI5QListI7QStringEE4dataEv(ptr noundef align 8 dereferenceable_or_null(24) %3) #23
  %5 = getelementptr inbounds nuw %struct.QArrayDataPointer, ptr %3, i32 0, i32 2
  %6 = load i64, ptr %5, align 8
  %7 = getelementptr %class.QList.0, ptr %4, i64 %6
  ret ptr %7
}

; Function Attrs: mustprogress nounwind null_pointer_is_valid sspstrong uwtable
define linkonce_odr noundef ptr @_ZN17QArrayDataPointerI5QListI7QStringEEptEv(ptr noundef align 8 dereferenceable_or_null(24) %0) #2 comdat align 2 {
  %2 = alloca ptr, align 8
  store ptr %0, ptr %2, align 8
  %3 = load ptr, ptr %2, align 8
  ret ptr %3
}

; Function Attrs: inlinehint mustprogress null_pointer_is_valid sspstrong uwtable
define linkonce_odr noundef align 8 dereferenceable(24) ptr @_ZN5QListI7QStringE11emplaceBackIJRKS0_EEERS0_DpOT_(ptr noundef align 8 dereferenceable_or_null(24) %0, ptr noundef align 8 dereferenceable(24) %1) #8 comdat align 2 {
  %3 = alloca ptr, align 8
  %4 = alloca ptr, align 8
  store ptr %0, ptr %3, align 8
  store ptr %1, ptr %4, align 8
  %5 = load ptr, ptr %3, align 8
  %6 = getelementptr inbounds nuw %class.QList.0, ptr %5, i32 0, i32 0
  %7 = call noundef ptr @_ZN17QArrayDataPointerI7QStringEptEv(ptr noundef align 8 dereferenceable_or_null(24) %6) #23
  %8 = getelementptr inbounds nuw %class.QList.0, ptr %5, i32 0, i32 0
  %9 = call noundef ptr @_ZN17QArrayDataPointerI7QStringEptEv(ptr noundef align 8 dereferenceable_or_null(24) %8) #23
  %10 = getelementptr inbounds nuw %struct.QArrayDataPointer.3, ptr %9, i32 0, i32 2
  %11 = load i64, ptr %10, align 8
  %12 = load ptr, ptr %4, align 8
  call void @_ZN9QtPrivate16QMovableArrayOpsI7QStringE7emplaceIJRKS1_EEEvxDpOT_(ptr noundef align 8 dereferenceable_or_null(24) %7, i64 noundef %11, ptr noundef align 8 dereferenceable(24) %12)
  %13 = getelementptr inbounds nuw %class.QList.0, ptr %5, i32 0, i32 0
  %14 = call noundef ptr @_ZN17QArrayDataPointerI7QStringE3endEv(ptr noundef align 8 dereferenceable_or_null(24) %13) #23
  %15 = getelementptr %class.QString, ptr %14, i64 -1
  ret ptr %15
}

; Function Attrs: inlinehint mustprogress null_pointer_is_valid sspstrong uwtable
define linkonce_odr noundef align 8 dereferenceable(24) ptr @_ZN5QListIS_I7QStringEE11emplaceBackIJRKS1_EEERS1_DpOT_(ptr noundef align 8 dereferenceable_or_null(24) %0, ptr noundef align 8 dereferenceable(24) %1) #8 comdat align 2 {
  %3 = alloca ptr, align 8
  %4 = alloca ptr, align 8
  store ptr %0, ptr %3, align 8
  store ptr %1, ptr %4, align 8
  %5 = load ptr, ptr %3, align 8
  %6 = getelementptr inbounds nuw %class.QList, ptr %5, i32 0, i32 0
  %7 = call noundef ptr @_ZN17QArrayDataPointerI5QListI7QStringEEptEv(ptr noundef align 8 dereferenceable_or_null(24) %6) #23
  %8 = getelementptr inbounds nuw %class.QList, ptr %5, i32 0, i32 0
  %9 = call noundef ptr @_ZN17QArrayDataPointerI5QListI7QStringEEptEv(ptr noundef align 8 dereferenceable_or_null(24) %8) #23
  %10 = getelementptr inbounds nuw %struct.QArrayDataPointer, ptr %9, i32 0, i32 2
  %11 = load i64, ptr %10, align 8
  %12 = load ptr, ptr %4, align 8
  call void @_ZN9QtPrivate16QMovableArrayOpsI5QListI7QStringEE7emplaceIJRKS3_EEEvxDpOT_(ptr noundef align 8 dereferenceable_or_null(24) %7, i64 noundef %11, ptr noundef align 8 dereferenceable(24) %12)
  %13 = getelementptr inbounds nuw %class.QList, ptr %5, i32 0, i32 0
  %14 = call noundef ptr @_ZN17QArrayDataPointerI5QListI7QStringEE3endEv(ptr noundef align 8 dereferenceable_or_null(24) %13) #23
  %15 = getelementptr %class.QList.0, ptr %14, i64 -1
  ret ptr %15
}

; Function Attrs: mustprogress nounwind null_pointer_is_valid sspstrong uwtable
define linkonce_odr noundef ptr @_ZNK17QArrayDataPointerI7QStringEptEv(ptr noundef align 8 dereferenceable_or_null(24) %0) #2 comdat align 2 {
  %2 = alloca ptr, align 8
  store ptr %0, ptr %2, align 8
  %3 = load ptr, ptr %2, align 8
  ret ptr %3
}

; Function Attrs: mustprogress null_pointer_is_valid sspstrong uwtable
define linkonce_odr void @_ZN5QListI7QStringE6appendERKS0_(ptr noundef align 8 dereferenceable_or_null(24) %0, ptr noundef align 8 dereferenceable(24) %1) #0 comdat align 2 {
  %3 = alloca ptr, align 8
  %4 = alloca ptr, align 8
  store ptr %0, ptr %3, align 8
  store ptr %1, ptr %4, align 8
  %5 = load ptr, ptr %3, align 8
  %6 = load ptr, ptr %4, align 8
  %7 = call noundef align 8 dereferenceable(24) ptr @_ZN5QListI7QStringE11emplaceBackIJRKS0_EEERS0_DpOT_(ptr noundef align 8 dereferenceable_or_null(24) %5, ptr noundef align 8 dereferenceable(24) %6)
  ret void
}

; Function Attrs: mustprogress null_pointer_is_valid sspstrong uwtable
define linkonce_odr void @_ZN5QListIS_I7QStringEE6appendERKS1_(ptr noundef align 8 dereferenceable_or_null(24) %0, ptr noundef align 8 dereferenceable(24) %1) #0 comdat align 2 {
  %3 = alloca ptr, align 8
  %4 = alloca ptr, align 8
  store ptr %0, ptr %3, align 8
  store ptr %1, ptr %4, align 8
  %5 = load ptr, ptr %3, align 8
  %6 = load ptr, ptr %4, align 8
  %7 = call noundef align 8 dereferenceable(24) ptr @_ZN5QListIS_I7QStringEE11emplaceBackIJRKS1_EEERS1_DpOT_(ptr noundef align 8 dereferenceable_or_null(24) %5, ptr noundef align 8 dereferenceable(24) %6)
  ret void
}

; Function Attrs: mustprogress nounwind null_pointer_is_valid sspstrong uwtable
define linkonce_odr noundef i64 @_ZNK5QListI7QStringE4sizeEv(ptr noundef align 8 dereferenceable_or_null(24) %0) #2 comdat align 2 {
  %2 = alloca ptr, align 8
  store ptr %0, ptr %2, align 8
  %3 = load ptr, ptr %2, align 8
  %4 = getelementptr inbounds nuw %class.QList.0, ptr %3, i32 0, i32 0
  %5 = call noundef ptr @_ZNK17QArrayDataPointerI7QStringEptEv(ptr noundef align 8 dereferenceable_or_null(24) %4) #23
  %6 = getelementptr inbounds nuw %struct.QArrayDataPointer.3, ptr %5, i32 0, i32 2
  %7 = load i64, ptr %6, align 8
  ret i64 %7
}

; Function Attrs: inlinehint mustprogress null_pointer_is_valid sspstrong uwtable
define linkonce_odr noundef align 8 dereferenceable(24) ptr @_ZN5QListI7QStringElsERKS0_(ptr noundef align 8 dereferenceable_or_null(24) %0, ptr noundef align 8 dereferenceable(24) %1) #8 comdat align 2 {
  %3 = alloca ptr, align 8
  %4 = alloca ptr, align 8
  store ptr %0, ptr %3, align 8
  store ptr %1, ptr %4, align 8
  %5 = load ptr, ptr %3, align 8
  %6 = load ptr, ptr %4, align 8
  call void @_ZN5QListI7QStringE6appendERKS0_(ptr noundef align 8 dereferenceable_or_null(24) %5, ptr noundef align 8 dereferenceable(24) %6)
  ret ptr %5
}

; Function Attrs: inlinehint mustprogress null_pointer_is_valid sspstrong uwtable
define linkonce_odr noundef align 8 dereferenceable(24) ptr @_ZN5QListIS_I7QStringEElsERKS1_(ptr noundef align 8 dereferenceable_or_null(24) %0, ptr noundef align 8 dereferenceable(24) %1) #8 comdat align 2 {
  %3 = alloca ptr, align 8
  %4 = alloca ptr, align 8
  store ptr %0, ptr %3, align 8
  store ptr %1, ptr %4, align 8
  %5 = load ptr, ptr %3, align 8
  %6 = load ptr, ptr %4, align 8
  call void @_ZN5QListIS_I7QStringEE6appendERKS1_(ptr noundef align 8 dereferenceable_or_null(24) %5, ptr noundef align 8 dereferenceable(24) %6)
  ret ptr %5
}

; Function Attrs: inlinehint mustprogress nounwind null_pointer_is_valid sspstrong uwtable
define linkonce_odr void @_ZN11QModelIndexC2Ev(ptr noundef align 8 dereferenceable_or_null(24) %0) unnamed_addr #4 comdat align 2 {
  %2 = alloca ptr, align 8
  store ptr %0, ptr %2, align 8
  %3 = load ptr, ptr %2, align 8
  %4 = getelementptr inbounds nuw %class.QModelIndex, ptr %3, i32 0, i32 0
  store i32 -1, ptr %4, align 8
  %5 = getelementptr inbounds nuw %class.QModelIndex, ptr %3, i32 0, i32 1
  store i32 -1, ptr %5, align 4
  %6 = getelementptr inbounds nuw %class.QModelIndex, ptr %3, i32 0, i32 2
  store i64 0, ptr %6, align 8
  %7 = getelementptr inbounds nuw %class.QModelIndex, ptr %3, i32 0, i32 3
  store ptr null, ptr %7, align 8
  ret void
}

; Function Attrs: mustprogress nounwind null_pointer_is_valid sspstrong uwtable
define linkonce_odr noundef i64 @_ZNK5QListI7QStringE5countEv(ptr noundef align 8 dereferenceable_or_null(24) %0) #2 comdat align 2 {
  %2 = alloca ptr, align 8
  store ptr %0, ptr %2, align 8
  %3 = load ptr, ptr %2, align 8
  %4 = call noundef i64 @_ZNK5QListI7QStringE4sizeEv(ptr noundef align 8 dereferenceable_or_null(24) %3) #23
  ret i64 %4
}

; Function Attrs: mustprogress null_pointer_is_valid sspstrong uwtable
define void @_ZN20AStringListListModel9appendRowERK5QListI7QStringERKS1_RK11QModelIndex(ptr noundef align 8 dereferenceable_or_null(64) %0, ptr noundef align 8 dereferenceable(24) %1, ptr noundef align 8 dereferenceable(24) %2, ptr noundef align 8 dereferenceable(24) %3) unnamed_addr #0 align 2 personality ptr @__gxx_personality_v0 {
  %5 = alloca ptr, align 8
  %6 = alloca ptr, align 8
  %7 = alloca ptr, align 8
  %8 = alloca ptr, align 8
  %9 = alloca %class.QList.0, align 8
  %10 = alloca i32, align 4
  %11 = alloca %class.QModelIndex, align 8
  %12 = alloca ptr, align 8
  %13 = alloca i32, align 4
  %14 = alloca %class.QModelIndex, align 8
  store ptr %0, ptr %5, align 8
  store ptr %1, ptr %6, align 8
  store ptr %2, ptr %7, align 8
  store ptr %3, ptr %8, align 8
  %15 = load ptr, ptr %5, align 8
  call void @llvm.lifetime.start.p0(i64 24, ptr %9) #23
  %16 = load ptr, ptr %15, align 8
  %17 = getelementptr inbounds ptr, ptr %16, i64 50
  %18 = load ptr, ptr %17, align 8
  call void %18(ptr dead_on_unwind writable sret(%class.QList.0) align 8 %9, ptr noundef align 8 dereferenceable_or_null(64) %15)
  %19 = load ptr, ptr %6, align 8
  %20 = call noundef i64 @_ZNK5QListI7QStringE5countEv(ptr noundef align 8 dereferenceable_or_null(24) %19) #23
  %21 = call noundef i64 @_ZNK5QListI7QStringE5countEv(ptr noundef align 8 dereferenceable_or_null(24) %9) #23
  %22 = icmp ne i64 %20, %21
  br i1 %22, label %23, label %24

23:                                               ; preds = %4
  store i32 1, ptr %10, align 4
  br label %46

24:                                               ; preds = %4
  %25 = load ptr, ptr %8, align 8
  call void @llvm.lifetime.start.p0(i64 24, ptr %11) #23
  call void @_ZN11QModelIndexC2Ev(ptr noundef align 8 dereferenceable_or_null(24) %11) #23
  %26 = load ptr, ptr %15, align 8
  %27 = getelementptr inbounds ptr, ptr %26, i64 15
  %28 = load ptr, ptr %27, align 8
  %29 = invoke noundef i32 %28(ptr noundef align 8 dereferenceable_or_null(64) %15, ptr noundef align 8 dereferenceable(24) %11)
          to label %30 unwind label %49

30:                                               ; preds = %24
  call void @llvm.lifetime.start.p0(i64 24, ptr %14) #23
  call void @_ZN11QModelIndexC2Ev(ptr noundef align 8 dereferenceable_or_null(24) %14) #23
  %31 = load ptr, ptr %15, align 8
  %32 = getelementptr inbounds ptr, ptr %31, i64 15
  %33 = load ptr, ptr %32, align 8
  %34 = invoke noundef i32 %33(ptr noundef align 8 dereferenceable_or_null(64) %15, ptr noundef align 8 dereferenceable(24) %14)
          to label %35 unwind label %53

35:                                               ; preds = %30
  invoke void @_ZN18QAbstractItemModel15beginInsertRowsERK11QModelIndexii(ptr noundef align 8 dereferenceable_or_null(16) %15, ptr noundef align 8 dereferenceable(24) %25, i32 noundef %29, i32 noundef %34)
          to label %36 unwind label %53

36:                                               ; preds = %35
  call void @llvm.lifetime.end.p0(i64 24, ptr %14) #23
  call void @llvm.lifetime.end.p0(i64 24, ptr %11) #23
  %37 = getelementptr inbounds nuw %class.AStringListListModel, ptr %15, i32 0, i32 1
  %38 = load ptr, ptr %6, align 8
  %39 = invoke noundef align 8 dereferenceable(24) ptr @_ZN5QListIS_I7QStringEElsERKS1_(ptr noundef align 8 dereferenceable_or_null(24) %37, ptr noundef align 8 dereferenceable(24) %38)
          to label %40 unwind label %58

40:                                               ; preds = %36
  %41 = getelementptr inbounds nuw %class.AStringListListModel, ptr %15, i32 0, i32 2
  %42 = load ptr, ptr %7, align 8
  %43 = invoke noundef align 8 dereferenceable(24) ptr @_ZN5QListI7QStringElsERKS0_(ptr noundef align 8 dereferenceable_or_null(24) %41, ptr noundef align 8 dereferenceable(24) %42)
          to label %44 unwind label %58

44:                                               ; preds = %40
  invoke void @_ZN18QAbstractItemModel13endInsertRowsEv(ptr noundef align 8 dereferenceable_or_null(16) %15)
          to label %45 unwind label %58

45:                                               ; preds = %44
  store i32 0, ptr %10, align 4
  br label %46

46:                                               ; preds = %45, %23
  call void @_ZN5QListI7QStringED2Ev(ptr noundef align 8 dereferenceable_or_null(24) %9) #23
  call void @llvm.lifetime.end.p0(i64 24, ptr %9) #23
  %47 = load i32, ptr %10, align 4
  switch i32 %47, label %68 [
    i32 0, label %48
    i32 1, label %48
  ]

48:                                               ; preds = %46, %46
  ret void

49:                                               ; preds = %24
  %50 = landingpad { ptr, i32 }
          cleanup
  %51 = extractvalue { ptr, i32 } %50, 0
  store ptr %51, ptr %12, align 8
  %52 = extractvalue { ptr, i32 } %50, 1
  store i32 %52, ptr %13, align 4
  br label %57

53:                                               ; preds = %35, %30
  %54 = landingpad { ptr, i32 }
          cleanup
  %55 = extractvalue { ptr, i32 } %54, 0
  store ptr %55, ptr %12, align 8
  %56 = extractvalue { ptr, i32 } %54, 1
  store i32 %56, ptr %13, align 4
  call void @llvm.lifetime.end.p0(i64 24, ptr %14) #23
  br label %57

57:                                               ; preds = %53, %49
  call void @llvm.lifetime.end.p0(i64 24, ptr %11) #23
  br label %62

58:                                               ; preds = %44, %40, %36
  %59 = landingpad { ptr, i32 }
          cleanup
  %60 = extractvalue { ptr, i32 } %59, 0
  store ptr %60, ptr %12, align 8
  %61 = extractvalue { ptr, i32 } %59, 1
  store i32 %61, ptr %13, align 4
  br label %62

62:                                               ; preds = %58, %57
  call void @_ZN5QListI7QStringED2Ev(ptr noundef align 8 dereferenceable_or_null(24) %9) #23
  call void @llvm.lifetime.end.p0(i64 24, ptr %9) #23
  br label %63

63:                                               ; preds = %62
  %64 = load ptr, ptr %12, align 8
  %65 = load i32, ptr %13, align 4
  %66 = insertvalue { ptr, i32 } poison, ptr %64, 0
  %67 = insertvalue { ptr, i32 } %66, i32 %65, 1
  resume { ptr, i32 } %67

68:                                               ; preds = %46
  unreachable
}