; Function Attrs: mustprogress null_pointer_is_valid sspstrong uwtable
define void @_ZN20AStringListListModel9appendRowERK5QListI7QStringERKS1_RK11QModelIndex(ptr noundef align 8 dereferenceable_or_null(64) %0, ptr noundef align 8 dereferenceable(24) %1, ptr noundef align 8 dereferenceable(24) %2, ptr noundef align 8 dereferenceable(24) %3) unnamed_addr #0 align 2 personality ptr @__gxx_personality_v0 {
  %5 = alloca %class.QList.0, align 8
  %6 = alloca %class.QModelIndex, align 8
  %7 = alloca %class.QModelIndex, align 8
  call void @llvm.lifetime.start.p0(i64 24, ptr nonnull %5) #24
  %8 = load ptr, ptr %0, align 8
  %9 = getelementptr inbounds nuw i8, ptr %8, i64 400
  %10 = load ptr, ptr %9, align 8
  call void %10(ptr dead_on_unwind nonnull writable sret(%class.QList.0) align 8 %5, ptr noundef align 8 dereferenceable_or_null(64) %0)
  %11 = getelementptr inbounds nuw i8, ptr %1, i64 16
  %12 = load i64, ptr %11, align 8
  %13 = getelementptr inbounds nuw i8, ptr %5, i64 16
  %14 = load i64, ptr %13, align 8
  %.not = icmp eq i64 %12, %14
  br i1 %.not, label %15, label %37

15:                                               ; preds = %4
  call void @llvm.lifetime.start.p0(i64 24, ptr nonnull %6) #24
  store i32 -1, ptr %6, align 8
  %16 = getelementptr inbounds nuw i8, ptr %6, i64 4
  store i32 -1, ptr %16, align 4
  %17 = getelementptr inbounds nuw i8, ptr %6, i64 8
  call void @llvm.memset.p0.i64(ptr noundef nonnull align 8 dereferenceable(16) %17, i8 0, i64 16, i1 false)
  %18 = load ptr, ptr %0, align 8
  %19 = getelementptr inbounds nuw i8, ptr %18, i64 120
  %20 = load ptr, ptr %19, align 8
  %21 = invoke noundef i32 %20(ptr noundef align 8 dereferenceable_or_null(64) %0, ptr noundef nonnull align 8 dereferenceable(24) %6)
          to label %22 unwind label %51

22:                                               ; preds = %15
  call void @llvm.lifetime.start.p0(i64 24, ptr nonnull %7) #24
  store i32 -1, ptr %7, align 8
  %23 = getelementptr inbounds nuw i8, ptr %7, i64 4
  store i32 -1, ptr %23, align 4
  %24 = getelementptr inbounds nuw i8, ptr %7, i64 8
  call void @llvm.memset.p0.i64(ptr noundef nonnull align 8 dereferenceable(16) %24, i8 0, i64 16, i1 false)
  %25 = load ptr, ptr %0, align 8
  %26 = getelementptr inbounds nuw i8, ptr %25, i64 120
  %27 = load ptr, ptr %26, align 8
  %28 = invoke noundef i32 %27(ptr noundef align 8 dereferenceable_or_null(64) %0, ptr noundef nonnull align 8 dereferenceable(24) %7)
          to label %29 unwind label %53

29:                                               ; preds = %22
  invoke void @_ZN18QAbstractItemModel15beginInsertRowsERK11QModelIndexii(ptr noundef align 8 dereferenceable_or_null(16) %0, ptr noundef align 8 dereferenceable(24) %3, i32 noundef %21, i32 noundef %28)
          to label %30 unwind label %53

30:                                               ; preds = %29
  call void @llvm.lifetime.end.p0(i64 24, ptr nonnull %7) #24
  call void @llvm.lifetime.end.p0(i64 24, ptr nonnull %6) #24
  %31 = getelementptr inbounds nuw i8, ptr %0, i64 16
  %32 = getelementptr inbounds nuw i8, ptr %0, i64 32
  %33 = load i64, ptr %32, align 8
  invoke void @_ZN9QtPrivate16QMovableArrayOpsI5QListI7QStringEE7emplaceIJRKS3_EEEvxDpOT_(ptr noundef nonnull align 8 dereferenceable_or_null(24) %31, i64 noundef %33, ptr noundef align 8 dereferenceable(24) %1)
          to label %_ZN5QListIS_I7QStringEElsERKS1_.exit unwind label %56

_ZN5QListIS_I7QStringEElsERKS1_.exit:             ; preds = %30
  %34 = getelementptr inbounds nuw i8, ptr %0, i64 40
  %35 = getelementptr inbounds nuw i8, ptr %0, i64 56
  %36 = load i64, ptr %35, align 8
  invoke void @_ZN9QtPrivate16QMovableArrayOpsI7QStringE7emplaceIJRKS1_EEEvxDpOT_(ptr noundef nonnull align 8 dereferenceable_or_null(24) %34, i64 noundef %36, ptr noundef align 8 dereferenceable(24) %2)
          to label %_ZN5QListI7QStringElsERKS0_.exit unwind label %56

_ZN5QListI7QStringElsERKS0_.exit:                 ; preds = %_ZN5QListIS_I7QStringEElsERKS1_.exit
  invoke void @_ZN18QAbstractItemModel13endInsertRowsEv(ptr noundef align 8 dereferenceable_or_null(16) %0)
          to label %37 unwind label %56

37:                                               ; preds = %_ZN5QListI7QStringElsERKS0_.exit, %4
  %38 = load ptr, ptr %5, align 8
  %.not.i.i.i = icmp eq ptr %38, null
  br i1 %.not.i.i.i, label %_ZN5QListI7QStringED2Ev.exit, label %_ZN17QArrayDataPointerI7QStringE5derefEv.exit.i.i

_ZN17QArrayDataPointerI7QStringE5derefEv.exit.i.i: ; preds = %37
  %39 = atomicrmw sub ptr %38, i32 1 seq_cst, align 4
  %.not.i.i = icmp eq i32 %39, 1
  br i1 %.not.i.i, label %40, label %_ZN5QListI7QStringED2Ev.exit

40:                                               ; preds = %_ZN17QArrayDataPointerI7QStringE5derefEv.exit.i.i
  %41 = getelementptr inbounds nuw i8, ptr %5, i64 8
  %42 = load ptr, ptr %41, align 8
  %43 = load i64, ptr %13, align 8
  %44 = getelementptr %class.QString, ptr %42, i64 %43
  %.idx.i.i.i = mul i64 %43, 24
  %.not4.i.i.i.i.i.i = icmp eq i64 %.idx.i.i.i, 0
  br i1 %.not4.i.i.i.i.i.i, label %_ZN9QtPrivate16QGenericArrayOpsI7QStringE10destroyAllEv.exit.i.i, label %.lr.ph.i.i.i.i.i.i

.lr.ph.i.i.i.i.i.i:                               ; preds = %40, %_ZSt8_DestroyI7QStringEvPT_.exit.i.i.i.i.i.i
  %.05.i.i.i.i.i.i = phi ptr [ %49, %_ZSt8_DestroyI7QStringEvPT_.exit.i.i.i.i.i.i ], [ %42, %40 ]
  %45 = load ptr, ptr %.05.i.i.i.i.i.i, align 8
  %.not.i.i.i.i.i.i.i.i.i.i = icmp eq ptr %45, null
  br i1 %.not.i.i.i.i.i.i.i.i.i.i, label %_ZSt8_DestroyI7QStringEvPT_.exit.i.i.i.i.i.i, label %_ZN17QArrayDataPointerIDsE5derefEv.exit.i.i.i.i.i.i.i.i.i

_ZN17QArrayDataPointerIDsE5derefEv.exit.i.i.i.i.i.i.i.i.i: ; preds = %.lr.ph.i.i.i.i.i.i
  %46 = atomicrmw sub ptr %45, i32 1 seq_cst, align 4
  %.not.i.i.i.i.i.i.i.i.i = icmp eq i32 %46, 1
  br i1 %.not.i.i.i.i.i.i.i.i.i, label %47, label %_ZSt8_DestroyI7QStringEvPT_.exit.i.i.i.i.i.i

47:                                               ; preds = %_ZN17QArrayDataPointerIDsE5derefEv.exit.i.i.i.i.i.i.i.i.i
  %48 = load ptr, ptr %.05.i.i.i.i.i.i, align 8
  call void @_ZN10QArrayData10deallocateEPS_xx(ptr noundef %48, i64 noundef 2, i64 noundef 8) #24
  br label %_ZSt8_DestroyI7QStringEvPT_.exit.i.i.i.i.i.i

_ZSt8_DestroyI7QStringEvPT_.exit.i.i.i.i.i.i:     ; preds = %47, %_ZN17QArrayDataPointerIDsE5derefEv.exit.i.i.i.i.i.i.i.i.i, %.lr.ph.i.i.i.i.i.i
  %49 = getelementptr i8, ptr %.05.i.i.i.i.i.i, i64 24
  %.not.i.i.i.i.i.i = icmp eq ptr %49, %44
  br i1 %.not.i.i.i.i.i.i, label %_ZN9QtPrivate16QGenericArrayOpsI7QStringE10destroyAllEv.exit.i.i, label %.lr.ph.i.i.i.i.i.i, !llvm.loop !6

_ZN9QtPrivate16QGenericArrayOpsI7QStringE10destroyAllEv.exit.i.i: ; preds = %_ZSt8_DestroyI7QStringEvPT_.exit.i.i.i.i.i.i, %40
  %50 = load ptr, ptr %5, align 8
  call void @_ZN10QArrayData10deallocateEPS_xx(ptr noundef %50, i64 noundef 24, i64 noundef 8) #24
  br label %_ZN5QListI7QStringED2Ev.exit

_ZN5QListI7QStringED2Ev.exit:                     ; preds = %37, %_ZN17QArrayDataPointerI7QStringE5derefEv.exit.i.i, %_ZN9QtPrivate16QGenericArrayOpsI7QStringE10destroyAllEv.exit.i.i
  call void @llvm.lifetime.end.p0(i64 24, ptr nonnull %5) #24
  ret void

51:                                               ; preds = %15
  %52 = landingpad { ptr, i32 }
          cleanup
  br label %55

53:                                               ; preds = %29, %22
  %54 = landingpad { ptr, i32 }
          cleanup
  call void @llvm.lifetime.end.p0(i64 24, ptr nonnull %7) #24
  br label %55

55:                                               ; preds = %53, %51
  %.pn = phi { ptr, i32 } [ %54, %53 ], [ %52, %51 ]
  call void @llvm.lifetime.end.p0(i64 24, ptr nonnull %6) #24
  br label %58

56:                                               ; preds = %_ZN5QListIS_I7QStringEElsERKS1_.exit, %30, %_ZN5QListI7QStringElsERKS0_.exit
  %57 = landingpad { ptr, i32 }
          cleanup
  br label %58

58:                                               ; preds = %56, %55
  %.pn9 = phi { ptr, i32 } [ %57, %56 ], [ %.pn, %55 ]
  call void @_ZN5QListI7QStringED2Ev(ptr noundef nonnull align 8 dereferenceable_or_null(24) %5) #24
  call void @llvm.lifetime.end.p0(i64 24, ptr nonnull %5) #24
  resume { ptr, i32 } %.pn9
}